(dp0
V151
p1
I3
sV150
p2
I2
sV153
p3
I5
sV152
p4
I4
sV155
p5
I7
sV154
p6
I6
sV635
p7
I44
sV335
p8
I18
sV334
p9
I17
sV337
p10
I20
sV336
p11
I19
sV551
p12
I39
sV315
p13
I14
sV332
p14
I15
sV133
p15
I1
sV339
p16
I22
sV338
p17
I21
sV344
p18
I27
sV345
p19
I28
sV346
p20
I29
sV347
p21
I30
sV340
p22
I23
sV341
p23
I24
sV342
p24
I25
sV343
p25
I26
sV348
p26
I31
sV349
p27
I32
sV287
p28
I12
sV547
p29
I38
sV202
p30
I8
sV634
p31
I43
sV204
p32
I9
sV209
p33
I10
sV670
p34
I45
sV671
p35
I46
sV588
p36
I42
sV567
p37
I41
sV247
p38
I11
sV000
p39
I0
sV384
p40
I34
sV333
p41
I16
sV386
p42
I35
sV552
p43
I40
sV456
p44
I37
sV415
p45
I36
sV353
p46
I33
sV292
p47
I13
s.